target datalayout = "e-m:e-p270:32:32-p271:32:32-p272:64:64-i64:64-i128:128-f80:128-n8:16:32:64-S128"
target triple = "x86_64-pc-linux-gnu"

%struct.AVFormatContext = type { ptr, ptr, ptr, ptr, ptr, i32, i32, ptr, i32, ptr, i32, ptr, ptr, i64, i64, i64, i32, i32, i32, i64, i64, ptr, i32, i32, ptr, i32, i32, i32, i32, ptr, i64, i32, i32, %struct.AVIOInterruptCB, i32, i32, i32, i32, i64, i32, i32, i32, i32, i32, i32, i32, i32, i32, i32, i32, i32, i64, i32, i32, i32, i32, i32, ptr, ptr, ptr, ptr, i32, ptr, ptr, ptr, ptr, i32, ptr, ptr, i64, ptr, ptr, ptr, i64 }
%struct.AVIOInterruptCB = type { ptr, ptr }
%struct.AVStream = type { ptr, i32, i32, ptr, ptr, %struct.AVRational, i64, i64, i64, i32, i32, %struct.AVRational, ptr, %struct.AVRational, %struct.AVPacket, i32, %struct.AVRational, i32 }
%struct.AVPacket = type { ptr, i64, i64, ptr, i32, i32, i32, ptr, i32, i64, i64, ptr, ptr, %struct.AVRational }
%struct.AVRational = type { i32, i32 }
%struct.VobSubDemuxContext = type { ptr, ptr, [32 x %struct.FFDemuxSubtitlesQueue], ptr }
%struct.FFDemuxSubtitlesQueue = type { ptr, i32, i32, i32, i32, i32 }

; Function Attrs: nounwind uwtable
define internal i32 @vobsub_read_seek(ptr noundef %0, i32 noundef %1, i64 noundef %2, i64 noundef %3, i64 noundef %4, i32 noundef %5) #0 {
  %7 = alloca i32, align 4
  %8 = alloca ptr, align 8
  %9 = alloca i32, align 4
  %10 = alloca i64, align 8
  %11 = alloca i64, align 8
  %12 = alloca i64, align 8
  %13 = alloca i32, align 4
  %14 = alloca ptr, align 8
  %15 = alloca i32, align 4
  %16 = alloca i32, align 4
  %17 = alloca %struct.AVRational, align 4
  %18 = alloca %struct.AVRational, align 4
  %19 = alloca i32, align 4
  %20 = alloca i32, align 4
  store ptr %0, ptr %8, align 8, !tbaa !18
  store i32 %1, ptr %9, align 4, !tbaa !9
  store i64 %2, ptr %10, align 8, !tbaa !38
  store i64 %3, ptr %11, align 8, !tbaa !38
  store i64 %4, ptr %12, align 8, !tbaa !38
  store i32 %5, ptr %13, align 4, !tbaa !9
  call void @llvm.lifetime.start.p0(i64 8, ptr %14) #12
  %21 = load ptr, ptr %8, align 8, !tbaa !18
  %22 = getelementptr inbounds nuw %struct.AVFormatContext, ptr %21, i32 0, i32 3
  %23 = load ptr, ptr %22, align 8, !tbaa !20
  store ptr %23, ptr %14, align 8, !tbaa !94
  %24 = load i32, ptr %9, align 4, !tbaa !9
  %25 = icmp eq i32 %24, -1
  br i1 %25, label %26, label %91

26:                                               ; preds = %6
  %27 = load ptr, ptr %8, align 8, !tbaa !18
  %28 = getelementptr inbounds nuw %struct.AVFormatContext, ptr %27, i32 0, i32 6
  %29 = load i32, ptr %28, align 4, !tbaa !47
  %30 = icmp ne i32 %29, 1
  br i1 %30, label %31, label %91

31:                                               ; preds = %26
  call void @llvm.lifetime.start.p0(i64 4, ptr %15) #12
  call void @llvm.lifetime.start.p0(i64 4, ptr %16) #12
  store i32 0, ptr %16, align 4, !tbaa !9
  call void @llvm.lifetime.start.p0(i64 8, ptr %17) #12
  %32 = load ptr, ptr %8, align 8, !tbaa !18
  %33 = getelementptr inbounds nuw %struct.AVFormatContext, ptr %32, i32 0, i32 7
  %34 = load ptr, ptr %33, align 8, !tbaa !48
  %35 = getelementptr inbounds ptr, ptr %34, i64 0
  %36 = load ptr, ptr %35, align 8, !tbaa !49
  %37 = getelementptr inbounds nuw %struct.AVStream, ptr %36, i32 0, i32 5
  call void @llvm.memcpy.p0.p0.i64(ptr align 4 %17, ptr align 8 %37, i64 8, i1 false), !tbaa.struct !125
  %38 = load i64, ptr %11, align 8, !tbaa !38
  %39 = getelementptr inbounds nuw %struct.AVRational, ptr %18, i32 0, i32 0
  store i32 1, ptr %39, align 4, !tbaa !126
  %40 = getelementptr inbounds nuw %struct.AVRational, ptr %18, i32 0, i32 1
  store i32 1000000, ptr %40, align 4, !tbaa !127
  %41 = load i64, ptr %18, align 4
  %42 = load i64, ptr %17, align 4
  %43 = call i64 @av_rescale_q(i64 noundef %38, i64 %41, i64 %42) #14
  store i64 %43, ptr %11, align 8, !tbaa !38
  %44 = load i64, ptr %10, align 8, !tbaa !38
  %45 = getelementptr inbounds nuw %struct.AVRational, ptr %17, i32 0, i32 1
  %46 = load i32, ptr %45, align 4, !tbaa !127
  %47 = sext i32 %46 to i64
  %48 = getelementptr inbounds nuw %struct.AVRational, ptr %17, i32 0, i32 0
  %49 = load i32, ptr %48, align 4, !tbaa !126
  %50 = sext i32 %49 to i64
  %51 = mul nsw i64 %50, 1000000
  %52 = call i64 @av_rescale_rnd(i64 noundef %44, i64 noundef %47, i64 noundef %51, i32 noundef 8195) #14
  store i64 %52, ptr %10, align 8, !tbaa !38
  %53 = load i64, ptr %12, align 8, !tbaa !38
  %54 = getelementptr inbounds nuw %struct.AVRational, ptr %17, i32 0, i32 1
  %55 = load i32, ptr %54, align 4, !tbaa !127
  %56 = sext i32 %55 to i64
  %57 = getelementptr inbounds nuw %struct.AVRational, ptr %17, i32 0, i32 0
  %58 = load i32, ptr %57, align 4, !tbaa !126
  %59 = sext i32 %58 to i64
  %60 = mul nsw i64 %59, 1000000
  %61 = call i64 @av_rescale_rnd(i64 noundef %53, i64 noundef %56, i64 noundef %60, i32 noundef 8194) #14
  store i64 %61, ptr %12, align 8, !tbaa !38
  store i32 0, ptr %15, align 4, !tbaa !9
  br label %62

62:                                               ; preds = %86, %31
  %63 = load i32, ptr %15, align 4, !tbaa !9
  %64 = load ptr, ptr %8, align 8, !tbaa !18
  %65 = getelementptr inbounds nuw %struct.AVFormatContext, ptr %64, i32 0, i32 6
  %66 = load i32, ptr %65, align 4, !tbaa !47
  %67 = icmp ult i32 %63, %66
  br i1 %67, label %68, label %89

68:                                               ; preds = %62
  call void @llvm.lifetime.start.p0(i64 4, ptr %19) #12
  %69 = load ptr, ptr %14, align 8, !tbaa !94
  %70 = getelementptr inbounds nuw %struct.VobSubDemuxContext, ptr %69, i32 0, i32 2
  %71 = load i32, ptr %15, align 4, !tbaa !9
  %72 = sext i32 %71 to i64
  %73 = getelementptr inbounds [32 x %struct.FFDemuxSubtitlesQueue], ptr %70, i64 0, i64 %72
  %74 = load ptr, ptr %8, align 8, !tbaa !18
  %75 = load i32, ptr %9, align 4, !tbaa !9
  %76 = load i64, ptr %10, align 8, !tbaa !38
  %77 = load i64, ptr %11, align 8, !tbaa !38
  %78 = load i64, ptr %12, align 8, !tbaa !38
  %79 = load i32, ptr %13, align 4, !tbaa !9
  %80 = call i32 @ff_subtitles_queue_seek(ptr noundef %73, ptr noundef %74, i32 noundef %75, i64 noundef %76, i64 noundef %77, i64 noundef %78, i32 noundef %79)
  store i32 %80, ptr %19, align 4, !tbaa !9
  %81 = load i32, ptr %19, align 4, !tbaa !9
  %82 = icmp slt i32 %81, 0
  br i1 %82, label %83, label %85

83:                                               ; preds = %68
  %84 = load i32, ptr %19, align 4, !tbaa !9
  store i32 %84, ptr %16, align 4, !tbaa !9
  br label %85

85:                                               ; preds = %83, %68
  call void @llvm.lifetime.end.p0(i64 4, ptr %19) #12
  br label %86

86:                                               ; preds = %85
  %87 = load i32, ptr %15, align 4, !tbaa !9
  %88 = add nsw i32 %87, 1
  store i32 %88, ptr %15, align 4, !tbaa !9
  br label %62, !llvm.loop !128

89:                                               ; preds = %62
  %90 = load i32, ptr %16, align 4, !tbaa !9
  store i32 %90, ptr %7, align 4
  store i32 1, ptr %20, align 4
  call void @llvm.lifetime.end.p0(i64 8, ptr %17) #12
  call void @llvm.lifetime.end.p0(i64 4, ptr %16) #12
  call void @llvm.lifetime.end.p0(i64 4, ptr %15) #12
  br label %108

91:                                               ; preds = %26, %6
  %92 = load i32, ptr %9, align 4, !tbaa !9
  %93 = icmp eq i32 %92, -1
  br i1 %93, label %94, label %95

94:                                               ; preds = %91
  store i32 0, ptr %9, align 4, !tbaa !9
  br label %95

95:                                               ; preds = %94, %91
  %96 = load ptr, ptr %14, align 8, !tbaa !94
  %97 = getelementptr inbounds nuw %struct.VobSubDemuxContext, ptr %96, i32 0, i32 2
  %98 = load i32, ptr %9, align 4, !tbaa !9
  %99 = sext i32 %98 to i64
  %100 = getelementptr inbounds [32 x %struct.FFDemuxSubtitlesQueue], ptr %97, i64 0, i64 %99
  %101 = load ptr, ptr %8, align 8, !tbaa !18
  %102 = load i32, ptr %9, align 4, !tbaa !9
  %103 = load i64, ptr %10, align 8, !tbaa !38
  %104 = load i64, ptr %11, align 8, !tbaa !38
  %105 = load i64, ptr %12, align 8, !tbaa !38
  %106 = load i32, ptr %13, align 4, !tbaa !9
  %107 = call i32 @ff_subtitles_queue_seek(ptr noundef %100, ptr noundef %101, i32 noundef %102, i64 noundef %103, i64 noundef %104, i64 noundef %105, i32 noundef %106)
  store i32 %107, ptr %7, align 4
  store i32 1, ptr %20, align 4
  br label %108

108:                                              ; preds = %95, %89
  call void @llvm.lifetime.end.p0(i64 8, ptr %14) #12
  %109 = load i32, ptr %7, align 4
  ret i32 %109
}