; Function Attrs: nounwind uwtable
define internal i32 @vobsub_read_seek(ptr noundef %0, i32 noundef %1, i64 noundef %2, i64 noundef %3, i64 noundef %4, i32 noundef %5) #1 {
  %7 = getelementptr inbounds nuw i8, ptr %0, i64 24
  %8 = load ptr, ptr %7, align 8, !tbaa !16
  %9 = icmp eq i32 %1, -1
  br i1 %9, label %10, label %32

10:                                               ; preds = %6
  %11 = getelementptr inbounds nuw i8, ptr %0, i64 44
  %12 = load i32, ptr %11, align 4, !tbaa !39
  %.not = icmp eq i32 %12, 1
  br i1 %.not, label %32, label %13

13:                                               ; preds = %10
  %14 = getelementptr inbounds nuw i8, ptr %0, i64 48
  %15 = load ptr, ptr %14, align 8, !tbaa !40
  %16 = load ptr, ptr %15, align 8, !tbaa !42
  %17 = getelementptr inbounds nuw i8, ptr %16, i64 32
  %.sroa.02.0.copyload = load i32, ptr %17, align 8, !tbaa !37
  %.sroa.6.0..sroa_idx = getelementptr inbounds nuw i8, ptr %16, i64 36
  %.sroa.6.0.copyload = load i32, ptr %.sroa.6.0..sroa_idx, align 4, !tbaa !37
  %.sroa.6.0.insert.ext = zext i32 %.sroa.6.0.copyload to i64
  %.sroa.6.0.insert.shift = shl nuw i64 %.sroa.6.0.insert.ext, 32
  %.sroa.02.0.insert.ext = zext i32 %.sroa.02.0.copyload to i64
  %.sroa.02.0.insert.insert = or disjoint i64 %.sroa.6.0.insert.shift, %.sroa.02.0.insert.ext
  %18 = tail call i64 @av_rescale_q(i64 noundef %3, i64 4294967296000001, i64 %.sroa.02.0.insert.insert) #15
  %19 = sext i32 %.sroa.6.0.copyload to i64
  %20 = sext i32 %.sroa.02.0.copyload to i64
  %21 = mul nsw i64 %20, 1000000
  %22 = tail call i64 @av_rescale_rnd(i64 noundef %2, i64 noundef %19, i64 noundef %21, i32 noundef 8195) #15
  %23 = tail call i64 @av_rescale_rnd(i64 noundef %4, i64 noundef %19, i64 noundef %21, i32 noundef 8194) #15
  %.not40 = icmp eq i32 %12, 0
  br i1 %.not40, label %.loopexit, label %.lr.ph

.lr.ph:                                           ; preds = %13
  %24 = getelementptr inbounds nuw i8, ptr %8, i64 16
  br label %25

25:                                               ; preds = %.lr.ph, %25
  %indvars.iv = phi i64 [ 0, %.lr.ph ], [ %indvars.iv.next, %25 ]
  %.03439 = phi i32 [ 0, %.lr.ph ], [ %spec.select, %25 ]
  %26 = getelementptr inbounds nuw [32 x %struct.FFDemuxSubtitlesQueue], ptr %24, i64 0, i64 %indvars.iv
  %27 = tail call i32 @ff_subtitles_queue_seek(ptr noundef nonnull %26, ptr noundef nonnull %0, i32 noundef -1, i64 noundef %22, i64 noundef %18, i64 noundef %23, i32 noundef %5) #13
  %28 = icmp slt i32 %27, 0
  %spec.select = select i1 %28, i32 %27, i32 %.03439
  %indvars.iv.next = add nuw nsw i64 %indvars.iv, 1
  %29 = load i32, ptr %11, align 4, !tbaa !39
  %30 = zext i32 %29 to i64
  %31 = icmp samesign ult i64 %indvars.iv.next, %30
  br i1 %31, label %25, label %.loopexit, !llvm.loop !107

32:                                               ; preds = %10, %6
  %spec.store.select = phi i32 [ 0, %10 ], [ %1, %6 ]
  %33 = getelementptr inbounds nuw i8, ptr %8, i64 16
  %34 = sext i32 %spec.store.select to i64
  %35 = getelementptr inbounds [32 x %struct.FFDemuxSubtitlesQueue], ptr %33, i64 0, i64 %34
  %36 = tail call i32 @ff_subtitles_queue_seek(ptr noundef nonnull %35, ptr noundef nonnull %0, i32 noundef %spec.store.select, i64 noundef %2, i64 noundef %3, i64 noundef %4, i32 noundef %5) #13
  br label %.loopexit

.loopexit:                                        ; preds = %25, %13, %32
  %.0 = phi i32 [ %36, %32 ], [ 0, %13 ], [ %spec.select, %25 ]
  ret i32 %.0
}